; Function Attrs: null_pointer_is_valid sspstrong uwtable
define internal i32 @dissect_nbap_MAC_PDU_SizeExtended(ptr noundef %0, i32 noundef %1, ptr noundef %2, ptr noundef %3, i32 noundef %4) #0 {
  %6 = getelementptr inbounds nuw i8, ptr %2, i64 16
  %7 = load ptr, ptr %6, align 8
  %8 = getelementptr inbounds nuw i8, ptr %7, i64 408
  %9 = load ptr, ptr %8, align 8
  %10 = load i32, ptr @proto_nbap, align 4
  %11 = tail call ptr @p_get_proto_data(ptr noundef %9, ptr noundef %7, i32 noundef %10, i32 noundef 0)
  %12 = icmp eq ptr %11, null
  br i1 %12, label %13, label %nbap_get_private_data.exit

13:                                               ; preds = %5
  %14 = load ptr, ptr %8, align 8
  %15 = tail call noalias dereferenceable_or_null(268056) ptr @wmem_alloc0(ptr noundef %14, i64 noundef 268056) #10
  %16 = load ptr, ptr %8, align 8
  %17 = load i32, ptr @proto_nbap, align 4
  tail call void @p_add_proto_data(ptr noundef %16, ptr noundef %7, i32 noundef %17, i32 noundef 0, ptr noundef %15)
  %18 = getelementptr inbounds nuw i8, ptr %15, i64 68
  store i32 3, ptr %18, align 4
  %19 = getelementptr inbounds nuw i8, ptr %15, i64 108
  store i8 0, ptr %19, align 4
  %20 = getelementptr inbounds nuw i8, ptr %15, i64 12
  store i32 65535, ptr %20, align 4
  %21 = getelementptr inbounds nuw i8, ptr %15, i64 40
  store i32 65535, ptr %21, align 8
  %22 = getelementptr inbounds nuw i8, ptr %15, i64 109
  store i8 2, ptr %22, align 1
  %23 = getelementptr i8, ptr %15, i64 267508
  br label %24

24:                                               ; preds = %24, %13
  %indvars.iv.i = phi i64 [ 0, %13 ], [ %indvars.iv.next.i, %24 ]
  %.idx.i = mul nuw nsw i64 %indvars.iv.i, 40
  %25 = getelementptr i8, ptr %23, i64 %.idx.i
  store i8 1, ptr %25, align 4
  %indvars.iv.next.i = add nuw nsw i64 %indvars.iv.i, 1
  %exitcond.not.i = icmp eq i64 %indvars.iv.next.i, 8
  br i1 %exitcond.not.i, label %nbap_get_private_data.exit, label %24, !llvm.loop !9

nbap_get_private_data.exit:                       ; preds = %24, %5
  %.0.i = phi ptr [ %11, %5 ], [ %15, %24 ]
  %26 = getelementptr inbounds nuw i8, ptr %.0.i, i64 267472
  %27 = tail call i32 @dissect_per_constrained_integer(ptr noundef %0, i32 noundef %1, ptr noundef %2, ptr noundef %3, i32 noundef %4, i32 noundef 1, i32 noundef 1504, ptr noundef null, i1 noundef zeroext true)
  %28 = load ptr, ptr %6, align 8
  %29 = getelementptr inbounds nuw i8, ptr %28, i64 408
  %30 = load ptr, ptr %29, align 8
  %31 = load i32, ptr @proto_nbap, align 4
  %32 = tail call ptr @p_get_proto_data(ptr noundef %30, ptr noundef %28, i32 noundef %31, i32 noundef 0)
  %33 = icmp eq ptr %32, null
  br i1 %33, label %34, label %nbap_get_private_data.exit17

34:                                               ; preds = %nbap_get_private_data.exit
  %35 = load ptr, ptr %29, align 8
  %36 = tail call noalias dereferenceable_or_null(268056) ptr @wmem_alloc0(ptr noundef %35, i64 noundef 268056) #10
  %37 = load ptr, ptr %29, align 8
  %38 = load i32, ptr @proto_nbap, align 4
  tail call void @p_add_proto_data(ptr noundef %37, ptr noundef %28, i32 noundef %38, i32 noundef 0, ptr noundef %36)
  %39 = getelementptr inbounds nuw i8, ptr %36, i64 68
  store i32 3, ptr %39, align 4
  %40 = getelementptr inbounds nuw i8, ptr %36, i64 108
  store i8 0, ptr %40, align 4
  %41 = getelementptr inbounds nuw i8, ptr %36, i64 12
  store i32 65535, ptr %41, align 4
  %42 = getelementptr inbounds nuw i8, ptr %36, i64 40
  store i32 65535, ptr %42, align 8
  %43 = getelementptr inbounds nuw i8, ptr %36, i64 109
  store i8 2, ptr %43, align 1
  %44 = getelementptr i8, ptr %36, i64 267508
  br label %45

45:                                               ; preds = %45, %34
  %indvars.iv.i13 = phi i64 [ 0, %34 ], [ %indvars.iv.next.i15, %45 ]
  %.idx.i14 = mul nuw nsw i64 %indvars.iv.i13, 40
  %46 = getelementptr i8, ptr %44, i64 %.idx.i14
  store i8 1, ptr %46, align 4
  %indvars.iv.next.i15 = add nuw nsw i64 %indvars.iv.i13, 1
  %exitcond.not.i16 = icmp eq i64 %indvars.iv.next.i15, 8
  br i1 %exitcond.not.i16, label %nbap_get_private_data.exit17, label %45, !llvm.loop !9

nbap_get_private_data.exit17:                     ; preds = %45, %nbap_get_private_data.exit
  %.0.i12 = phi ptr [ %32, %nbap_get_private_data.exit ], [ %36, %45 ]
  %47 = getelementptr inbounds nuw i8, ptr %.0.i12, i64 72
  store i8 1, ptr %47, align 8
  %48 = load ptr, ptr %6, align 8
  %49 = getelementptr inbounds nuw i8, ptr %48, i64 408
  %50 = load ptr, ptr %49, align 8
  %51 = load i32, ptr @proto_nbap, align 4
  %52 = tail call ptr @p_get_proto_data(ptr noundef %50, ptr noundef %48, i32 noundef %51, i32 noundef 0)
  %53 = icmp eq ptr %52, null
  br i1 %53, label %55, label %nbap_get_private_data.exit17.nbap_get_private_data.exit23_crit_edge

nbap_get_private_data.exit17.nbap_get_private_data.exit23_crit_edge: ; preds = %nbap_get_private_data.exit17
  %.phi.trans.insert = getelementptr inbounds nuw i8, ptr %52, i64 68
  %.pre = load i32, ptr %.phi.trans.insert, align 4
  %54 = zext i32 %.pre to i64
  br label %nbap_get_private_data.exit23

55:                                               ; preds = %nbap_get_private_data.exit17
  %56 = load ptr, ptr %49, align 8
  %57 = tail call noalias dereferenceable_or_null(268056) ptr @wmem_alloc0(ptr noundef %56, i64 noundef 268056) #10
  %58 = load ptr, ptr %49, align 8
  %59 = load i32, ptr @proto_nbap, align 4
  tail call void @p_add_proto_data(ptr noundef %58, ptr noundef %48, i32 noundef %59, i32 noundef 0, ptr noundef %57)
  %60 = getelementptr inbounds nuw i8, ptr %57, i64 68
  store i32 3, ptr %60, align 4
  %61 = getelementptr inbounds nuw i8, ptr %57, i64 108
  store i8 0, ptr %61, align 4
  %62 = getelementptr inbounds nuw i8, ptr %57, i64 12
  store i32 65535, ptr %62, align 4
  %63 = getelementptr inbounds nuw i8, ptr %57, i64 40
  store i32 65535, ptr %63, align 8
  %64 = getelementptr inbounds nuw i8, ptr %57, i64 109
  store i8 2, ptr %64, align 1
  %65 = getelementptr i8, ptr %57, i64 267508
  br label %66

66:                                               ; preds = %66, %55
  %indvars.iv.i19 = phi i64 [ 0, %55 ], [ %indvars.iv.next.i21, %66 ]
  %.idx.i20 = mul nuw nsw i64 %indvars.iv.i19, 40
  %67 = getelementptr i8, ptr %65, i64 %.idx.i20
  store i8 1, ptr %67, align 4
  %indvars.iv.next.i21 = add nuw nsw i64 %indvars.iv.i19, 1
  %exitcond.not.i22 = icmp eq i64 %indvars.iv.next.i21, 8
  br i1 %exitcond.not.i22, label %nbap_get_private_data.exit23, label %66, !llvm.loop !9

nbap_get_private_data.exit23:                     ; preds = %66, %nbap_get_private_data.exit17.nbap_get_private_data.exit23_crit_edge
  %68 = phi i64 [ %54, %nbap_get_private_data.exit17.nbap_get_private_data.exit23_crit_edge ], [ 3, %66 ]
  %69 = getelementptr %struct.nbap_hsdsch_channel_info_t, ptr %26, i64 %68
  %70 = getelementptr inbounds nuw i8, ptr %69, i64 24
  %71 = load i16, ptr %70, align 8
  %.not = icmp eq i16 %71, 0
  br i1 %.not, label %74, label %72

72:                                               ; preds = %nbap_get_private_data.exit23
  %73 = getelementptr inbounds nuw i8, ptr %69, i64 36
  store i8 2, ptr %73, align 4
  br label %74

74:                                               ; preds = %72, %nbap_get_private_data.exit23
  ret i32 %27
}